target datalayout = "e-m:e-p270:32:32-p271:32:32-p272:64:64-i64:64-i128:128-f80:128-n8:16:32:64-S128"
target triple = "x86_64-pc-linux-gnu"

; Function Attrs: inlinehint mustprogress nounwind uwtable
define internal noundef signext i8 @_ZL9ImToUpperc(i8 noundef signext %0) #7 {
  %2 = alloca i8, align 1
  store i8 %0, ptr %2, align 1, !tbaa !245
  %3 = load i8, ptr %2, align 1, !tbaa !245
  %4 = sext i8 %3 to i32
  %5 = icmp sge i32 %4, 97
  br i1 %5, label %6, label %15

6:                                                ; preds = %1
  %7 = load i8, ptr %2, align 1, !tbaa !245
  %8 = sext i8 %7 to i32
  %9 = icmp sle i32 %8, 122
  br i1 %9, label %10, label %15

10:                                               ; preds = %6
  %11 = load i8, ptr %2, align 1, !tbaa !245
  %12 = sext i8 %11 to i32
  %13 = and i32 %12, -33
  %14 = trunc i32 %13 to i8
  store i8 %14, ptr %2, align 1, !tbaa !245
  br label %17

15:                                               ; preds = %6, %1
  %16 = load i8, ptr %2, align 1, !tbaa !245
  br label %17

17:                                               ; preds = %15, %10
  %18 = phi i8 [ %14, %10 ], [ %16, %15 ]
  ret i8 %18
}

; Function Attrs: mustprogress uwtable
define dso_local noundef i32 @_Z10ImStrnicmpPKcS0_m(ptr noundef %0, ptr noundef %1, i64 noundef %2) #0 {
  %4 = alloca ptr, align 8
  %5 = alloca ptr, align 8
  %6 = alloca i64, align 8
  %7 = alloca i32, align 4
  store ptr %0, ptr %4, align 8, !tbaa !254
  store ptr %1, ptr %5, align 8, !tbaa !254
  store i64 %2, ptr %6, align 8, !tbaa !290
  call void @llvm.lifetime.start.p0(i64 4, ptr %7) #16
  store i32 0, ptr %7, align 4, !tbaa !117
  br label %8

8:                                                ; preds = %28, %3
  %9 = load i64, ptr %6, align 8, !tbaa !290
  %10 = icmp ugt i64 %9, 0
  br i1 %10, label %11, label %26

11:                                               ; preds = %8
  %12 = load ptr, ptr %5, align 8, !tbaa !254
  %13 = load i8, ptr %12, align 1, !tbaa !245
  %14 = call noundef signext i8 @_ZL9ImToUpperc(i8 noundef signext %13)
  %15 = sext i8 %14 to i32
  %16 = load ptr, ptr %4, align 8, !tbaa !254
  %17 = load i8, ptr %16, align 1, !tbaa !245
  %18 = call noundef signext i8 @_ZL9ImToUpperc(i8 noundef signext %17)
  %19 = sext i8 %18 to i32
  %20 = sub nsw i32 %15, %19
  store i32 %20, ptr %7, align 4, !tbaa !117
  %21 = icmp eq i32 %20, 0
  br i1 %21, label %22, label %26

22:                                               ; preds = %11
  %23 = load ptr, ptr %4, align 8, !tbaa !254
  %24 = load i8, ptr %23, align 1, !tbaa !245
  %25 = icmp ne i8 %24, 0
  br label %26

26:                                               ; preds = %22, %11, %8
  %27 = phi i1 [ false, %11 ], [ false, %8 ], [ %25, %22 ]
  br i1 %27, label %28, label %35

28:                                               ; preds = %26
  %29 = load ptr, ptr %4, align 8, !tbaa !254
  %30 = getelementptr inbounds nuw i8, ptr %29, i32 1
  store ptr %30, ptr %4, align 8, !tbaa !254
  %31 = load ptr, ptr %5, align 8, !tbaa !254
  %32 = getelementptr inbounds nuw i8, ptr %31, i32 1
  store ptr %32, ptr %5, align 8, !tbaa !254
  %33 = load i64, ptr %6, align 8, !tbaa !290
  %34 = add i64 %33, -1
  store i64 %34, ptr %6, align 8, !tbaa !290
  br label %8, !llvm.loop !292

35:                                               ; preds = %26
  %36 = load i32, ptr %7, align 4, !tbaa !117
  call void @llvm.lifetime.end.p0(i64 4, ptr %7) #16
  ret i32 %36
}